target datalayout = "e-m:e-p270:32:32-p271:32:32-p272:64:64-i64:64-i128:128-f80:128-n8:16:32:64-S128"
target triple = "x86_64-pc-linux-gnu"

%"class.std::__cxx11::basic_string" = type { %"struct.std::__cxx11::basic_string<char>::_Alloc_hider", i64, %union.anon }
%"struct.std::__cxx11::basic_string<char>::_Alloc_hider" = type { ptr }
%union.anon = type { i64, [8 x i8] }
%struct.gmx_multisim_t = type { i32, i32, ptr, ptr }
%"class.std::filesystem::__cxx11::path" = type { %"class.std::__cxx11::basic_string", %"struct.std::filesystem::__cxx11::path::_List" }
%"struct.std::filesystem::__cxx11::path::_List" = type { %"class.std::unique_ptr.20" }
%"class.std::unique_ptr.20" = type { %"struct.std::__uniq_ptr_data.21" }
%"struct.std::__uniq_ptr_data.21" = type { %"class.std::__uniq_ptr_impl.22" }
%"class.std::__uniq_ptr_impl.22" = type { %"class.std::tuple.23" }
%"class.std::tuple.23" = type { %"struct.std::_Tuple_impl.24" }
%"struct.std::_Tuple_impl.24" = type { %"struct.std::_Head_base.27" }
%"struct.std::_Head_base.27" = type { ptr }

@.str.1 = private unnamed_addr constant [131 x i8] c"generated/home/dtcxzyw/WorkSpace/Projects/compilers/llvm-opt-benchmark/bench/gromacs/gromacs/src/gromacs/mdrunutility/multisim.cpp\00", align 1
@TMPI_INT = external constant ptr, align 8
@.str.6 = private unnamed_addr constant [23 x i8] c"Multi-checking %s ... \00", align 1
@.str.7 = private unnamed_addr constant [57 x i8] c"check_multi_int called with a NULL communication pointer\00", align 1
@.str.8 = private unnamed_addr constant [5 x i8] c"ibuf\00", align 1
@.str.9 = private unnamed_addr constant [4 x i8] c"OK\0A\00", align 1
@.str.10 = private unnamed_addr constant [37 x i8] c"\0A%s is not equal for all subsystems\0A\00", align 1
@.str.11 = private unnamed_addr constant [20 x i8] c"  subsystem %d: %d\0A\00", align 1
@.str.12 = private unnamed_addr constant [38 x i8] c"The %d subsystems are not compatible\0A\00", align 1

; Function Attrs: mustprogress uwtable
define internal void @_ZL14gmx_sfree_implIiEvPKcS1_iPT_(ptr noundef %0, ptr noundef %1, i32 noundef %2, ptr noundef %3) #0 {
  %5 = alloca ptr, align 8
  %6 = alloca ptr, align 8
  %7 = alloca i32, align 4
  %8 = alloca ptr, align 8
  store ptr %0, ptr %5, align 8
  store ptr %1, ptr %6, align 8
  store i32 %2, ptr %7, align 4
  store ptr %3, ptr %8, align 8
  %9 = load ptr, ptr %5, align 8
  %10 = load ptr, ptr %6, align 8
  %11 = load i32, ptr %7, align 4
  %12 = load ptr, ptr %8, align 8
  call void @_Z9save_freePKcS0_iPv(ptr noundef %9, ptr noundef %10, i32 noundef %11, ptr noundef %12)
  ret void
}

; Function Attrs: mustprogress uwtable
define void @_Z12gmx_sumi_simiPiPK14gmx_multisim_t(i32 noundef %0, ptr noundef %1, ptr noundef %2) #0 {
  %4 = alloca i32, align 4
  %5 = alloca ptr, align 8
  %6 = alloca ptr, align 8
  store i32 %0, ptr %4, align 4
  store ptr %1, ptr %5, align 8
  store ptr %2, ptr %6, align 8
  %7 = load ptr, ptr %5, align 8
  %8 = load i32, ptr %4, align 4
  %9 = load ptr, ptr @TMPI_INT, align 8
  %10 = load ptr, ptr %6, align 8
  %11 = getelementptr inbounds %struct.gmx_multisim_t, ptr %10, i32 0, i32 2
  %12 = load ptr, ptr %11, align 8
  %13 = call noundef i32 @_Z14tMPI_AllreducePvS_iP14tmpi_datatype_7tMPI_OpP10tmpi_comm_(ptr noundef null, ptr noundef %7, i32 noundef %8, ptr noundef %9, i32 noundef 2, ptr noundef %12)
  ret void
}

; Function Attrs: mustprogress uwtable
define internal void @_ZL13gmx_snew_implIiEvPKcS1_iRPT_m(ptr noundef %0, ptr noundef %1, i32 noundef %2, ptr noundef nonnull align 8 dereferenceable(8) %3, i64 noundef %4) #0 {
  %6 = alloca ptr, align 8
  %7 = alloca ptr, align 8
  %8 = alloca i32, align 4
  %9 = alloca ptr, align 8
  %10 = alloca i64, align 8
  store ptr %0, ptr %6, align 8
  store ptr %1, ptr %7, align 8
  store i32 %2, ptr %8, align 4
  store ptr %3, ptr %9, align 8
  store i64 %4, ptr %10, align 8
  %11 = load ptr, ptr %6, align 8
  %12 = load ptr, ptr %7, align 8
  %13 = load i32, ptr %8, align 4
  %14 = load i64, ptr %10, align 8
  %15 = call noundef ptr @_Z11save_callocPKcS0_imm(ptr noundef %11, ptr noundef %12, i32 noundef %13, i64 noundef %14, i64 noundef 4)
  %16 = load ptr, ptr %9, align 8
  store ptr %15, ptr %16, align 8
  ret void
}

; Function Attrs: mustprogress uwtable
define void @_Z15check_multi_intP8_IO_FILEPK14gmx_multisim_tiPKcb(ptr noundef %0, ptr noundef %1, i32 noundef %2, ptr noundef %3, i1 noundef zeroext %4) #0 personality ptr @__gxx_personality_v0 {
  %6 = alloca ptr, align 8
  %7 = alloca ptr, align 8
  %8 = alloca i32, align 4
  %9 = alloca ptr, align 8
  %10 = alloca i8, align 1
  %11 = alloca ptr, align 8
  %12 = alloca i32, align 4
  %13 = alloca i8, align 1
  %14 = alloca %"class.std::filesystem::__cxx11::path", align 8
  %15 = alloca ptr, align 8
  %16 = alloca i32, align 4
  %17 = alloca %"class.std::filesystem::__cxx11::path", align 8
  store ptr %0, ptr %6, align 8
  store ptr %1, ptr %7, align 8
  store i32 %2, ptr %8, align 4
  store ptr %3, ptr %9, align 8
  %18 = zext i1 %4 to i8
  store i8 %18, ptr %10, align 1
  %19 = load ptr, ptr %6, align 8
  %20 = icmp ne ptr null, %19
  br i1 %20, label %21, label %28

21:                                               ; preds = %5
  %22 = load i8, ptr %10, align 1
  %23 = trunc i8 %22 to i1
  br i1 %23, label %28, label %24

24:                                               ; preds = %21
  %25 = load ptr, ptr %6, align 8
  %26 = load ptr, ptr %9, align 8
  %27 = call i32 (ptr, ptr, ...) @fprintf(ptr noundef %25, ptr noundef @.str.6, ptr noundef %26) #10
  br label %28

28:                                               ; preds = %24, %21, %5
  %29 = load ptr, ptr %7, align 8
  %30 = icmp eq ptr %29, null
  br i1 %30, label %31, label %37

31:                                               ; preds = %28
  call void @_ZNSt10filesystem7__cxx114pathC2IA131_cS1_EERKT_NS1_6formatE(ptr noundef nonnull align 8 dereferenceable(40) %14, ptr noundef nonnull align 1 dereferenceable(131) @.str.1, i8 noundef zeroext 2)
  invoke void (i32, ptr, i32, ptr, ...) @_Z9gmx_fataliRKNSt10filesystem7__cxx114pathEiPKcz(i32 noundef 0, ptr noundef nonnull align 8 dereferenceable(40) %14, i32 noundef 251, ptr noundef @.str.7) #11
          to label %32 unwind label %33

32:                                               ; preds = %31
  unreachable

33:                                               ; preds = %31
  %34 = landingpad { ptr, i32 }
          cleanup
  %35 = extractvalue { ptr, i32 } %34, 0
  store ptr %35, ptr %15, align 8
  %36 = extractvalue { ptr, i32 } %34, 1
  store i32 %36, ptr %16, align 4
  call void @_ZNSt10filesystem7__cxx114pathD2Ev(ptr noundef nonnull align 8 dereferenceable(40) %14) #10
  br label %132

37:                                               ; preds = %28
  %38 = load ptr, ptr %7, align 8
  %39 = getelementptr inbounds %struct.gmx_multisim_t, ptr %38, i32 0, i32 0
  %40 = load i32, ptr %39, align 8
  %41 = sext i32 %40 to i64
  call void @_ZL13gmx_snew_implIiEvPKcS1_iRPT_m(ptr noundef @.str.8, ptr noundef @.str.1, i32 noundef 254, ptr noundef nonnull align 8 dereferenceable(8) %11, i64 noundef %41)
  %42 = load i32, ptr %8, align 4
  %43 = load ptr, ptr %11, align 8
  %44 = load ptr, ptr %7, align 8
  %45 = getelementptr inbounds %struct.gmx_multisim_t, ptr %44, i32 0, i32 1
  %46 = load i32, ptr %45, align 4
  %47 = sext i32 %46 to i64
  %48 = getelementptr inbounds i32, ptr %43, i64 %47
  store i32 %42, ptr %48, align 4
  %49 = load ptr, ptr %7, align 8
  %50 = getelementptr inbounds %struct.gmx_multisim_t, ptr %49, i32 0, i32 0
  %51 = load i32, ptr %50, align 8
  %52 = load ptr, ptr %11, align 8
  %53 = load ptr, ptr %7, align 8
  call void @_Z12gmx_sumi_simiPiPK14gmx_multisim_t(i32 noundef %51, ptr noundef %52, ptr noundef %53)
  store i8 1, ptr %13, align 1
  store i32 1, ptr %12, align 4
  br label %54

54:                                               ; preds = %79, %37
  %55 = load i32, ptr %12, align 4
  %56 = load ptr, ptr %7, align 8
  %57 = getelementptr inbounds %struct.gmx_multisim_t, ptr %56, i32 0, i32 0
  %58 = load i32, ptr %57, align 8
  %59 = icmp slt i32 %55, %58
  br i1 %59, label %60, label %82

60:                                               ; preds = %54
  %61 = load i8, ptr %13, align 1
  %62 = trunc i8 %61 to i1
  br i1 %62, label %63, label %76

63:                                               ; preds = %60
  %64 = load ptr, ptr %11, align 8
  %65 = load i32, ptr %12, align 4
  %66 = sub nsw i32 %65, 1
  %67 = sext i32 %66 to i64
  %68 = getelementptr inbounds i32, ptr %64, i64 %67
  %69 = load i32, ptr %68, align 4
  %70 = load ptr, ptr %11, align 8
  %71 = load i32, ptr %12, align 4
  %72 = sext i32 %71 to i64
  %73 = getelementptr inbounds i32, ptr %70, i64 %72
  %74 = load i32, ptr %73, align 4
  %75 = icmp eq i32 %69, %74
  br label %76

76:                                               ; preds = %63, %60
  %77 = phi i1 [ false, %60 ], [ %75, %63 ]
  %78 = zext i1 %77 to i8
  store i8 %78, ptr %13, align 1
  br label %79

79:                                               ; preds = %76
  %80 = load i32, ptr %12, align 4
  %81 = add nsw i32 %80, 1
  store i32 %81, ptr %12, align 4
  br label %54, !llvm.loop !8

82:                                               ; preds = %54
  %83 = load i8, ptr %13, align 1
  %84 = trunc i8 %83 to i1
  br i1 %84, label %85, label %95

85:                                               ; preds = %82
  %86 = load ptr, ptr %6, align 8
  %87 = icmp ne ptr null, %86
  br i1 %87, label %88, label %94

88:                                               ; preds = %85
  %89 = load i8, ptr %10, align 1
  %90 = trunc i8 %89 to i1
  br i1 %90, label %94, label %91

91:                                               ; preds = %88
  %92 = load ptr, ptr %6, align 8
  %93 = call i32 (ptr, ptr, ...) @fprintf(ptr noundef %92, ptr noundef @.str.9) #10
  br label %94

94:                                               ; preds = %91, %88, %85
  br label %130

95:                                               ; preds = %82
  %96 = load ptr, ptr %6, align 8
  %97 = icmp ne ptr null, %96
  br i1 %97, label %98, label %121

98:                                               ; preds = %95
  %99 = load ptr, ptr %6, align 8
  %100 = load ptr, ptr %9, align 8
  %101 = call i32 (ptr, ptr, ...) @fprintf(ptr noundef %99, ptr noundef @.str.10, ptr noundef %100) #10
  store i32 0, ptr %12, align 4
  br label %102

102:                                              ; preds = %117, %98
  %103 = load i32, ptr %12, align 4
  %104 = load ptr, ptr %7, align 8
  %105 = getelementptr inbounds %struct.gmx_multisim_t, ptr %104, i32 0, i32 0
  %106 = load i32, ptr %105, align 8
  %107 = icmp slt i32 %103, %106
  br i1 %107, label %108, label %120

108:                                              ; preds = %102
  %109 = load ptr, ptr %6, align 8
  %110 = load i32, ptr %12, align 4
  %111 = load ptr, ptr %11, align 8
  %112 = load i32, ptr %12, align 4
  %113 = sext i32 %112 to i64
  %114 = getelementptr inbounds i32, ptr %111, i64 %113
  %115 = load i32, ptr %114, align 4
  %116 = call i32 (ptr, ptr, ...) @fprintf(ptr noundef %109, ptr noundef @.str.11, i32 noundef %110, i32 noundef %115) #10
  br label %117

117:                                              ; preds = %108
  %118 = load i32, ptr %12, align 4
  %119 = add nsw i32 %118, 1
  store i32 %119, ptr %12, align 4
  br label %102, !llvm.loop !9

120:                                              ; preds = %102
  br label %121

121:                                              ; preds = %120, %95
  call void @_ZNSt10filesystem7__cxx114pathC2IA131_cS1_EERKT_NS1_6formatE(ptr noundef nonnull align 8 dereferenceable(40) %17, ptr noundef nonnull align 1 dereferenceable(131) @.str.1, i8 noundef zeroext 2)
  %122 = load ptr, ptr %7, align 8
  %123 = getelementptr inbounds %struct.gmx_multisim_t, ptr %122, i32 0, i32 0
  %124 = load i32, ptr %123, align 8
  invoke void (i32, ptr, i32, ptr, ...) @_Z9gmx_fataliRKNSt10filesystem7__cxx114pathEiPKcz(i32 noundef 0, ptr noundef nonnull align 8 dereferenceable(40) %17, i32 noundef 281, ptr noundef @.str.12, i32 noundef %124) #11
          to label %125 unwind label %126

125:                                              ; preds = %121
  unreachable

126:                                              ; preds = %121
  %127 = landingpad { ptr, i32 }
          cleanup
  %128 = extractvalue { ptr, i32 } %127, 0
  store ptr %128, ptr %15, align 8
  %129 = extractvalue { ptr, i32 } %127, 1
  store i32 %129, ptr %16, align 4
  call void @_ZNSt10filesystem7__cxx114pathD2Ev(ptr noundef nonnull align 8 dereferenceable(40) %17) #10
  br label %132

130:                                              ; preds = %94
  %131 = load ptr, ptr %11, align 8
  call void @_ZL14gmx_sfree_implIiEvPKcS1_iPT_(ptr noundef @.str.8, ptr noundef @.str.1, i32 noundef 284, ptr noundef %131)
  ret void

132:                                              ; preds = %126, %33
  %133 = load ptr, ptr %15, align 8
  %134 = load i32, ptr %16, align 4
  %135 = insertvalue { ptr, i32 } poison, ptr %133, 0
  %136 = insertvalue { ptr, i32 } %135, i32 %134, 1
  resume { ptr, i32 } %136
}