; Function Attrs: mustprogress uwtable
define void @_Z15check_multi_intP8_IO_FILEPK14gmx_multisim_tiPKcb(ptr noundef %0, ptr noundef readonly %1, i32 noundef %2, ptr noundef %3, i1 noundef zeroext %4) local_unnamed_addr #0 personality ptr @__gxx_personality_v0 {
  %6 = alloca %"class.std::filesystem::__cxx11::path", align 8
  %7 = alloca %"class.std::filesystem::__cxx11::path", align 8
  %.not = icmp eq ptr %0, null
  %brmerge = or i1 %.not, %4
  br i1 %brmerge, label %10, label %8

8:                                                ; preds = %5
  %9 = tail call i32 (ptr, ptr, ...) @fprintf(ptr noundef nonnull %0, ptr noundef nonnull @.str.6, ptr noundef %3) #19
  br label %10

10:                                               ; preds = %5, %8
  %11 = icmp eq ptr %1, null
  br i1 %11, label %12, label %16

12:                                               ; preds = %10
  call void @_ZNSt10filesystem7__cxx114pathC2IA131_cS1_EERKT_NS1_6formatE(ptr noundef nonnull align 8 dereferenceable(40) %6, ptr noundef nonnull align 1 dereferenceable(131) @.str.1, i8 noundef zeroext 2)
  invoke void (i32, ptr, i32, ptr, ...) @_Z9gmx_fataliRKNSt10filesystem7__cxx114pathEiPKcz(i32 noundef 0, ptr noundef nonnull align 8 dereferenceable(40) %6, i32 noundef 251, ptr noundef nonnull @.str.7) #20
          to label %13 unwind label %14

13:                                               ; preds = %12
  unreachable

14:                                               ; preds = %12
  %15 = landingpad { ptr, i32 }
          cleanup
  br label %55

16:                                               ; preds = %10
  %17 = load i32, ptr %1, align 8
  %18 = sext i32 %17 to i64
  %19 = tail call noundef ptr @_Z11save_callocPKcS0_imm(ptr noundef nonnull @.str.8, ptr noundef nonnull @.str.1, i32 noundef 254, i64 noundef %18, i64 noundef 4)
  %20 = getelementptr inbounds i8, ptr %1, i64 4
  %21 = load i32, ptr %20, align 4
  %22 = sext i32 %21 to i64
  %23 = getelementptr inbounds i32, ptr %19, i64 %22
  store i32 %2, ptr %23, align 4
  %24 = load i32, ptr %1, align 8
  %25 = load ptr, ptr @TMPI_INT, align 8
  %26 = getelementptr inbounds i8, ptr %1, i64 8
  %27 = load ptr, ptr %26, align 8
  %28 = tail call noundef i32 @_Z14tMPI_AllreducePvS_iP14tmpi_datatype_7tMPI_OpP10tmpi_comm_(ptr noundef null, ptr noundef %19, i32 noundef %24, ptr noundef %25, i32 noundef 2, ptr noundef %27)
  %29 = load i32, ptr %1, align 8
  %30 = icmp sgt i32 %29, 1
  br i1 %30, label %.lr.ph.preheader, label %.critedge

.lr.ph.preheader:                                 ; preds = %16
  %wide.trip.count = zext nneg i32 %29 to i64
  br label %.lr.ph

.lr.ph:                                           ; preds = %.lr.ph.backedge, %.lr.ph.preheader
  %indvars.iv = phi i64 [ 1, %.lr.ph.preheader ], [ %indvars.iv.be, %.lr.ph.backedge ]
  %.03244 = phi i1 [ true, %.lr.ph.preheader ], [ %.03244.be, %.lr.ph.backedge ]
  br i1 %.03244, label %31, label %.thread

31:                                               ; preds = %.lr.ph
  %32 = getelementptr i32, ptr %19, i64 %indvars.iv
  %33 = getelementptr i8, ptr %32, i64 -4
  %34 = load i32, ptr %33, align 4
  %35 = load i32, ptr %32, align 4
  %36 = icmp eq i32 %34, %35
  %indvars.iv.next = add nuw nsw i64 %indvars.iv, 1
  %exitcond.not = icmp eq i64 %indvars.iv.next, %wide.trip.count
  br i1 %exitcond.not, label %._crit_edge, label %.lr.ph.backedge

.lr.ph.backedge:                                  ; preds = %31, %.thread
  %indvars.iv.be = phi i64 [ %indvars.iv.next, %31 ], [ %indvars.iv.next51, %.thread ]
  %.03244.be = phi i1 [ %36, %31 ], [ false, %.thread ]
  br label %.lr.ph, !llvm.loop !7

.thread:                                          ; preds = %.lr.ph
  %indvars.iv.next51 = add nuw nsw i64 %indvars.iv, 1
  %exitcond.not52 = icmp eq i64 %indvars.iv.next51, %wide.trip.count
  br i1 %exitcond.not52, label %._crit_edge.thread, label %.lr.ph.backedge

._crit_edge:                                      ; preds = %31
  br i1 %36, label %.critedge, label %._crit_edge.thread

.critedge:                                        ; preds = %16, %._crit_edge
  br i1 %brmerge, label %54, label %37

37:                                               ; preds = %.critedge
  %38 = tail call i64 @fwrite(ptr nonnull @.str.9, i64 3, i64 1, ptr nonnull %0)
  br label %54

._crit_edge.thread:                               ; preds = %.thread, %._crit_edge
  br i1 %.not, label %.loopexit, label %39

39:                                               ; preds = %._crit_edge.thread
  %40 = tail call i32 (ptr, ptr, ...) @fprintf(ptr noundef nonnull %0, ptr noundef nonnull @.str.10, ptr noundef %3) #19
  %41 = load i32, ptr %1, align 8
  %42 = icmp sgt i32 %41, 0
  br i1 %42, label %.lr.ph47, label %.loopexit

.lr.ph47:                                         ; preds = %39, %.lr.ph47
  %indvars.iv48 = phi i64 [ %indvars.iv.next49, %.lr.ph47 ], [ 0, %39 ]
  %43 = getelementptr inbounds i32, ptr %19, i64 %indvars.iv48
  %44 = load i32, ptr %43, align 4
  %45 = trunc nuw nsw i64 %indvars.iv48 to i32
  %46 = tail call i32 (ptr, ptr, ...) @fprintf(ptr noundef nonnull %0, ptr noundef nonnull @.str.11, i32 noundef %45, i32 noundef %44) #19
  %indvars.iv.next49 = add nuw nsw i64 %indvars.iv48, 1
  %47 = load i32, ptr %1, align 8
  %48 = sext i32 %47 to i64
  %49 = icmp slt i64 %indvars.iv.next49, %48
  br i1 %49, label %.lr.ph47, label %.loopexit, !llvm.loop !8

.loopexit:                                        ; preds = %.lr.ph47, %39, %._crit_edge.thread
  call void @_ZNSt10filesystem7__cxx114pathC2IA131_cS1_EERKT_NS1_6formatE(ptr noundef nonnull align 8 dereferenceable(40) %7, ptr noundef nonnull align 1 dereferenceable(131) @.str.1, i8 noundef zeroext 2)
  %50 = load i32, ptr %1, align 8
  invoke void (i32, ptr, i32, ptr, ...) @_Z9gmx_fataliRKNSt10filesystem7__cxx114pathEiPKcz(i32 noundef 0, ptr noundef nonnull align 8 dereferenceable(40) %7, i32 noundef 281, ptr noundef nonnull @.str.12, i32 noundef %50) #20
          to label %51 unwind label %52

51:                                               ; preds = %.loopexit
  unreachable

52:                                               ; preds = %.loopexit
  %53 = landingpad { ptr, i32 }
          cleanup
  br label %55

54:                                               ; preds = %.critedge, %37
  tail call void @_Z9save_freePKcS0_iPv(ptr noundef nonnull @.str.8, ptr noundef nonnull @.str.1, i32 noundef 284, ptr noundef %19)
  ret void

55:                                               ; preds = %52, %14
  %.sink = phi ptr [ %7, %52 ], [ %6, %14 ]
  %.pn = phi { ptr, i32 } [ %53, %52 ], [ %15, %14 ]
  call void @_ZNSt10filesystem7__cxx114pathD2Ev(ptr noundef nonnull align 8 dereferenceable(40) %.sink) #19
  resume { ptr, i32 } %.pn
}